; Function Attrs: mustprogress uwtable
define void @_ZN3gmx22SelectionOptionManager18convertOptionValueEPNS_22SelectionOptionStorageERKNSt7__cxx1112basic_stringIcSt11char_traitsIcESaIcEEEb(ptr nocapture noundef nonnull readonly align 8 dereferenceable(16) %0, ptr noundef %1, ptr noundef nonnull align 8 dereferenceable(32) %2, i1 noundef zeroext %3) local_unnamed_addr #2 align 2 personality ptr @__gxx_personality_v0 {
  %5 = alloca %"class.std::vector.7", align 8
  %6 = getelementptr inbounds i8, ptr %0, i64 8
  %7 = load ptr, ptr %6, align 8
  %8 = load ptr, ptr %7, align 8
  call void @_ZN3gmx19SelectionCollection15parseFromStringERKNSt7__cxx1112basic_stringIcSt11char_traitsIcESaIcEEE(ptr dead_on_unwind nonnull writable sret(%"class.std::vector.7") align 8 %5, ptr noundef nonnull align 8 dereferenceable(8) %8, ptr noundef nonnull align 8 dereferenceable(32) %2)
  invoke void @_ZN3gmx22SelectionOptionStorage13addSelectionsERKSt6vectorINS_9SelectionESaIS2_EEb(ptr noundef nonnull align 8 dereferenceable(208) %1, ptr noundef nonnull align 8 dereferenceable(24) %5, i1 noundef zeroext %3)
          to label %9 unwind label %12

9:                                                ; preds = %4
  %10 = load ptr, ptr %5, align 8
  %.not.i.i.i = icmp eq ptr %10, null
  br i1 %.not.i.i.i, label %_ZNSt6vectorIN3gmx9SelectionESaIS1_EED2Ev.exit, label %11

11:                                               ; preds = %9
  call void @_ZdlPv(ptr noundef nonnull %10) #17
  br label %_ZNSt6vectorIN3gmx9SelectionESaIS1_EED2Ev.exit

_ZNSt6vectorIN3gmx9SelectionESaIS1_EED2Ev.exit:   ; preds = %9, %11
  ret void

12:                                               ; preds = %4
  %13 = landingpad { ptr, i32 }
          cleanup
  %14 = load ptr, ptr %5, align 8
  %.not.i.i.i5 = icmp eq ptr %14, null
  br i1 %.not.i.i.i5, label %_ZNSt6vectorIN3gmx9SelectionESaIS1_EED2Ev.exit6, label %15

15:                                               ; preds = %12
  call void @_ZdlPv(ptr noundef nonnull %14) #17
  br label %_ZNSt6vectorIN3gmx9SelectionESaIS1_EED2Ev.exit6

_ZNSt6vectorIN3gmx9SelectionESaIS1_EED2Ev.exit6:  ; preds = %12, %15
  resume { ptr, i32 } %13
}